; Function Attrs: nounwind sspstrong uwtable
define dso_local i64 @rb_cstr2inum(ptr noundef nonnull %0, i32 noundef %1) local_unnamed_addr #0 {
  %3 = alloca ptr, align 8
  %4 = icmp ne i32 %1, 0
  call void @llvm.lifetime.start.p0(i64 8, ptr nonnull %3) #27
  %..i = select i1 %4, ptr %3, ptr null
  %5 = call i64 @rb_int_parse_cstr(ptr noundef nonnull %0, i64 noundef -1, ptr noundef %..i, ptr noundef null, i32 noundef %1, i32 noundef 7)
  %6 = icmp ne i64 %5, 4
  %brmerge.i = or i1 %4, %6
  br i1 %brmerge.i, label %rb_cstr_to_inum.exit, label %7

7:                                                ; preds = %2
  call void @rb_invalid_str(ptr noundef nonnull %0, ptr noundef nonnull @.str.3) #29
  unreachable

rb_cstr_to_inum.exit:                             ; preds = %2
  %.mux.i = select i1 %6, i64 %5, i64 1
  call void @llvm.lifetime.end.p0(i64 8, ptr nonnull %3) #27
  ret i64 %.mux.i
}